; Function Attrs: mustprogress nofree norecurse nosync nounwind memory(argmem: readwrite) uwtable
define hidden void @_ZN3dpx13GenericHeader25CalculateNumberOfElementsEv(ptr noundef nonnull align 4 captures(none) dereferenceable(1664) %0) local_unnamed_addr #10 align 2 {
.preheader.i:
  %invariant.gep.i = getelementptr inbounds nuw i8, ptr %0, i64 800
  br label %_ZNK3dpx13GenericHeader15ImageDescriptorEi.exit.i

_ZNK3dpx13GenericHeader15ImageDescriptorEi.exit.i: ; preds = %4, %.preheader.i
  %indvars.iv.i = phi i64 [ 0, %.preheader.i ], [ %indvars.iv.next.i, %4 ]
  %1 = mul nuw nsw i64 %indvars.iv.i, 72
  %gep.i = getelementptr inbounds nuw i8, ptr %invariant.gep.i, i64 %1
  %2 = load i8, ptr %gep.i, align 4, !tbaa !65
  %3 = icmp eq i8 %2, -1
  br i1 %3, label %_ZNK3dpx13GenericHeader17ImageElementCountEv.exit, label %4

4:                                                ; preds = %_ZNK3dpx13GenericHeader15ImageDescriptorEi.exit.i
  %indvars.iv.next.i = add nuw nsw i64 %indvars.iv.i, 1
  %exitcond.not.i = icmp eq i64 %indvars.iv.next.i, 8
  br i1 %exitcond.not.i, label %_ZNK3dpx13GenericHeader17ImageElementCountEv.exit.thread, label %_ZNK3dpx13GenericHeader15ImageDescriptorEi.exit.i, !llvm.loop !66

_ZNK3dpx13GenericHeader17ImageElementCountEv.exit: ; preds = %_ZNK3dpx13GenericHeader15ImageDescriptorEi.exit.i
  %5 = icmp eq i64 %indvars.iv.i, 0
  %6 = trunc i64 %indvars.iv.i to i16
  %spec.select = select i1 %5, i16 -1, i16 %6
  br label %_ZNK3dpx13GenericHeader17ImageElementCountEv.exit.thread

_ZNK3dpx13GenericHeader17ImageElementCountEv.exit.thread: ; preds = %4, %_ZNK3dpx13GenericHeader17ImageElementCountEv.exit
  %7 = phi i16 [ %spec.select, %_ZNK3dpx13GenericHeader17ImageElementCountEv.exit ], [ 8, %4 ]
  %8 = getelementptr inbounds nuw i8, ptr %0, i64 770
  store i16 %7, ptr %8, align 2, !tbaa !67
  ret void
}